target datalayout = "e-m:e-p270:32:32-p271:32:32-p272:64:64-i64:64-i128:128-f80:128-n8:16:32:64-S128"
target triple = "x86_64-pc-linux-gnu"

; Function Attrs: nounwind uwtable
define i32 @stb_div_trunc(i32 noundef %0, i32 noundef %1) #0 {
  %3 = alloca i32, align 4
  %4 = alloca i32, align 4
  %5 = alloca i32, align 4
  store i32 %0, ptr %4, align 4, !tbaa !3
  store i32 %1, ptr %5, align 4, !tbaa !3
  %6 = load i32, ptr %4, align 4, !tbaa !3
  %7 = icmp sge i32 %6, 0
  br i1 %7, label %8, label %17

8:                                                ; preds = %2
  %9 = load i32, ptr %5, align 4, !tbaa !3
  %10 = icmp sle i32 %9, 0
  br i1 %10, label %11, label %17

11:                                               ; preds = %8
  %12 = load i32, ptr %4, align 4, !tbaa !3
  %13 = sub nsw i32 0, %12
  %14 = load i32, ptr %5, align 4, !tbaa !3
  %15 = sdiv i32 %13, %14
  %16 = sub nsw i32 0, %15
  store i32 %16, ptr %3, align 4
  br label %45

17:                                               ; preds = %8, %2
  %18 = load i32, ptr %4, align 4, !tbaa !3
  %19 = icmp sle i32 %18, 0
  br i1 %19, label %20, label %41

20:                                               ; preds = %17
  %21 = load i32, ptr %5, align 4, !tbaa !3
  %22 = icmp sge i32 %21, 0
  br i1 %22, label %23, label %41

23:                                               ; preds = %20
  %24 = load i32, ptr %4, align 4, !tbaa !3
  %25 = icmp ne i32 %24, -2147483648
  br i1 %25, label %26, label %32

26:                                               ; preds = %23
  %27 = load i32, ptr %4, align 4, !tbaa !3
  %28 = load i32, ptr %5, align 4, !tbaa !3
  %29 = sub nsw i32 0, %28
  %30 = sdiv i32 %27, %29
  %31 = sub nsw i32 0, %30
  store i32 %31, ptr %3, align 4
  br label %45

32:                                               ; preds = %23
  %33 = load i32, ptr %4, align 4, !tbaa !3
  %34 = load i32, ptr %5, align 4, !tbaa !3
  %35 = add nsw i32 %33, %34
  %36 = load i32, ptr %5, align 4, !tbaa !3
  %37 = sub nsw i32 0, %36
  %38 = sdiv i32 %35, %37
  %39 = sub nsw i32 0, %38
  %40 = sub nsw i32 %39, 1
  store i32 %40, ptr %3, align 4
  br label %45

41:                                               ; preds = %20, %17
  %42 = load i32, ptr %4, align 4, !tbaa !3
  %43 = load i32, ptr %5, align 4, !tbaa !3
  %44 = sdiv i32 %42, %43
  store i32 %44, ptr %3, align 4
  br label %45

45:                                               ; preds = %41, %32, %26, %11
  %46 = load i32, ptr %3, align 4
  ret i32 %46
}