; Function Attrs: mustprogress nofree norecurse nosync nounwind willreturn memory(none) uwtable
define i32 @stb_div_trunc(i32 noundef %0, i32 noundef %1) local_unnamed_addr #0 {
  %3 = icmp sgt i32 %0, -1
  %4 = icmp slt i32 %1, 1
  %or.cond = and i1 %3, %4
  br i1 %or.cond, label %5, label %7

5:                                                ; preds = %2
  %.nonneg = sub i32 0, %1
  %6 = udiv i32 %0, %.nonneg
  %.neg = sub nsw i32 0, %6
  br label %19

7:                                                ; preds = %2
  %8 = icmp slt i32 %0, 1
  %9 = icmp sgt i32 %1, -1
  %or.cond3 = and i1 %8, %9
  br i1 %or.cond3, label %10, label %17

10:                                               ; preds = %7
  %.not = icmp eq i32 %0, -2147483648
  br i1 %.not, label %14, label %11

11:                                               ; preds = %10
  %.nonneg23 = sub nsw i32 0, %0
  %12 = udiv i32 %.nonneg23, %1
  %13 = sub nsw i32 0, %12
  br label %19

14:                                               ; preds = %10
  %.neg25 = sub nuw i32 -2147483648, %1
  %15 = udiv i32 %.neg25, %1
  %16 = xor i32 %15, -1
  br label %19

17:                                               ; preds = %7
  %18 = sdiv i32 %0, %1
  br label %19

19:                                               ; preds = %17, %14, %11, %5
  %.0 = phi i32 [ %.neg, %5 ], [ %13, %11 ], [ %16, %14 ], [ %18, %17 ]
  ret i32 %.0
}